; ModuleID = 'source-C-CXX/37/1409.c'
source_filename = "source-C-CXX/37/1409.c"
target datalayout = "e-m:e-p270:32:32-p271:32:32-p272:64:64-i64:64-f80:128-n8:16:32:64-S128"
target triple = "x86_64-pc-linux-gnu"

@.str = private unnamed_addr constant [3 x i8] c"%d\00", align 1
@.str.1 = private unnamed_addr constant [4 x i8] c"%lf\00", align 1
@.str.2 = private unnamed_addr constant [7 x i8] c"%.5lf\0A\00", align 1

; Function Attrs: nofree nounwind sspstrong uwtable
define dso_local i32 @main() local_unnamed_addr #0 {
  %1 = alloca i32, align 4
  %2 = alloca [100 x i32], align 16
  %3 = alloca [1000 x double], align 16
  %4 = bitcast i32* %1 to i8*
  call void @llvm.lifetime.start.p0i8(i64 4, i8* nonnull %4) #4
  %5 = bitcast [100 x i32]* %2 to i8*
  call void @llvm.lifetime.start.p0i8(i64 400, i8* nonnull %5) #4
  %6 = call i32 (i8*, ...) @__isoc99_scanf(i8* getelementptr inbounds ([3 x i8], [3 x i8]* @.str, i64 0, i64 0), i32* nonnull %1)
  %7 = bitcast [1000 x double]* %3 to i8*
  %8 = load i32, i32* %1, align 4, !tbaa !5
  %9 = icmp sgt i32 %8, 0
  br i1 %9, label %10, label %97

10:                                               ; preds = %0, %87
  %11 = phi i64 [ %93, %87 ], [ 0, %0 ]
  %12 = getelementptr inbounds [100 x i32], [100 x i32]* %2, i64 0, i64 %11
  %13 = call i32 (i8*, ...) @__isoc99_scanf(i8* getelementptr inbounds ([3 x i8], [3 x i8]* @.str, i64 0, i64 0), i32* nonnull %12)
  call void @llvm.lifetime.start.p0i8(i64 8000, i8* nonnull %7) #4
  %14 = load i32, i32* %12, align 4, !tbaa !5
  %15 = icmp sgt i32 %14, 0
  br i1 %15, label %18, label %16

16:                                               ; preds = %10
  %17 = sitofp i32 %14 to double
  br label %87

18:                                               ; preds = %10, %18
  %19 = phi i64 [ %25, %18 ], [ 0, %10 ]
  %20 = phi double [ %24, %18 ], [ 0.000000e+00, %10 ]
  %21 = getelementptr inbounds [1000 x double], [1000 x double]* %3, i64 0, i64 %19
  %22 = call i32 (i8*, ...) @__isoc99_scanf(i8* getelementptr inbounds ([4 x i8], [4 x i8]* @.str.1, i64 0, i64 0), double* nonnull %21)
  %23 = load double, double* %21, align 8, !tbaa !9
  %24 = fadd double %20, %23
  %25 = add nuw nsw i64 %19, 1
  %26 = load i32, i32* %12, align 4, !tbaa !5
  %27 = sext i32 %26 to i64
  %28 = icmp slt i64 %25, %27
  br i1 %28, label %18, label %29, !llvm.loop !11

29:                                               ; preds = %18
  %30 = sitofp i32 %26 to double
  %31 = fdiv double %24, %30
  %32 = icmp sgt i32 %26, 0
  br i1 %32, label %33, label %87

33:                                               ; preds = %29
  %34 = zext i32 %26 to i64
  %35 = add nsw i64 %34, -1
  %36 = and i64 %34, 3
  %37 = icmp ult i64 %35, 3
  br i1 %37, label %70, label %38

38:                                               ; preds = %33
  %39 = and i64 %34, 4294967292
  br label %40

40:                                               ; preds = %40, %38
  %41 = phi i64 [ 0, %38 ], [ %67, %40 ]
  %42 = phi double [ 0.000000e+00, %38 ], [ %66, %40 ]
  %43 = phi i64 [ %39, %38 ], [ %68, %40 ]
  %44 = getelementptr inbounds [1000 x double], [1000 x double]* %3, i64 0, i64 %41
  %45 = load double, double* %44, align 16, !tbaa !9
  %46 = fsub double %45, %31
  %47 = fmul double %46, %46
  %48 = fadd double %42, %47
  %49 = or i64 %41, 1
  %50 = getelementptr inbounds [1000 x double], [1000 x double]* %3, i64 0, i64 %49
  %51 = load double, double* %50, align 8, !tbaa !9
  %52 = fsub double %51, %31
  %53 = fmul double %52, %52
  %54 = fadd double %48, %53
  %55 = or i64 %41, 2
  %56 = getelementptr inbounds [1000 x double], [1000 x double]* %3, i64 0, i64 %55
  %57 = load double, double* %56, align 16, !tbaa !9
  %58 = fsub double %57, %31
  %59 = fmul double %58, %58
  %60 = fadd double %54, %59
  %61 = or i64 %41, 3
  %62 = getelementptr inbounds [1000 x double], [1000 x double]* %3, i64 0, i64 %61
  %63 = load double, double* %62, align 8, !tbaa !9
  %64 = fsub double %63, %31
  %65 = fmul double %64, %64
  %66 = fadd double %60, %65
  %67 = add nuw nsw i64 %41, 4
  %68 = add i64 %43, -4
  %69 = icmp eq i64 %68, 0
  br i1 %69, label %70, label %40, !llvm.loop !13

70:                                               ; preds = %40, %33
  %71 = phi double [ undef, %33 ], [ %66, %40 ]
  %72 = phi i64 [ 0, %33 ], [ %67, %40 ]
  %73 = phi double [ 0.000000e+00, %33 ], [ %66, %40 ]
  %74 = icmp eq i64 %36, 0
  br i1 %74, label %87, label %75

75:                                               ; preds = %70, %75
  %76 = phi i64 [ %84, %75 ], [ %72, %70 ]
  %77 = phi double [ %83, %75 ], [ %73, %70 ]
  %78 = phi i64 [ %85, %75 ], [ %36, %70 ]
  %79 = getelementptr inbounds [1000 x double], [1000 x double]* %3, i64 0, i64 %76
  %80 = load double, double* %79, align 8, !tbaa !9
  %81 = fsub double %80, %31
  %82 = fmul double %81, %81
  %83 = fadd double %77, %82
  %84 = add nuw nsw i64 %76, 1
  %85 = add i64 %78, -1
  %86 = icmp eq i64 %85, 0
  br i1 %86, label %87, label %75, !llvm.loop !14

87:                                               ; preds = %70, %75, %16, %29
  %88 = phi double [ %30, %29 ], [ %17, %16 ], [ %30, %75 ], [ %30, %70 ]
  %89 = phi double [ 0.000000e+00, %29 ], [ 0.000000e+00, %16 ], [ %71, %70 ], [ %83, %75 ]
  %90 = fdiv double %89, %88
  %91 = call double @sqrt(double %90) #4
  %92 = call i32 (i8*, ...) @printf(i8* nonnull dereferenceable(1) getelementptr inbounds ([7 x i8], [7 x i8]* @.str.2, i64 0, i64 0), double %91)
  call void @llvm.lifetime.end.p0i8(i64 8000, i8* nonnull %7) #4
  %93 = add nuw nsw i64 %11, 1
  %94 = load i32, i32* %1, align 4, !tbaa !5
  %95 = sext i32 %94 to i64
  %96 = icmp slt i64 %93, %95
  br i1 %96, label %10, label %97, !llvm.loop !16

97:                                               ; preds = %87, %0
  call void @llvm.lifetime.end.p0i8(i64 400, i8* nonnull %5) #4
  call void @llvm.lifetime.end.p0i8(i64 4, i8* nonnull %4) #4
  ret i32 0
}

; Function Attrs: argmemonly mustprogress nofree nosync nounwind willreturn
declare void @llvm.lifetime.start.p0i8(i64 immarg, i8* nocapture) #1

; Function Attrs: nofree nounwind
declare noundef i32 @__isoc99_scanf(i8* nocapture noundef readonly, ...) local_unnamed_addr #2

; Function Attrs: mustprogress nofree nounwind willreturn
declare double @sqrt(double) local_unnamed_addr #3

; Function Attrs: nofree nounwind
declare noundef i32 @printf(i8* nocapture noundef readonly, ...) local_unnamed_addr #2

; Function Attrs: argmemonly mustprogress nofree nosync nounwind willreturn
declare void @llvm.lifetime.end.p0i8(i64 immarg, i8* nocapture) #1


!llvm.module.flags = !{!0, !1, !2, !3}
!llvm.ident = !{!4}

!0 = !{i32 1, !"wchar_size", i32 4}
!1 = !{i32 7, !"PIC Level", i32 2}
!2 = !{i32 7, !"PIE Level", i32 2}
!3 = !{i32 7, !"uwtable", i32 1}
!4 = !{!"clang version 13.0.0"}
!5 = !{!6, !6, i64 0}
!6 = !{!"int", !7, i64 0}
!7 = !{!"omnipotent char", !8, i64 0}
!8 = !{!"Simple C/C++ TBAA"}
!9 = !{!10, !10, i64 0}
!10 = !{!"double", !7, i64 0}
!11 = distinct !{!11, !12}
!12 = !{!"llvm.loop.mustprogress"}
!13 = distinct !{!13, !12}
!14 = distinct !{!14, !15}
!15 = !{!"llvm.loop.unroll.disable"}
!16 = distinct !{!16, !12}
